(iwebapp.task.task
ExecuteClass
p0
(dp1
S'group'
p2
S'all'
p3
sS'host_port_str'
p4
V192.168.10.3:22,
p5
sS'task_id'
p6
S'c95ea6c5'
p7
sS'scriptObj'
p8
cdjango.db.models.base
model_unpickle
p9
((S'webapp'
p10
S'ScriptModel'
p11
tp12
tp13
Rp14
(dp15
S'name'
p16
V\u5217\u51fa\u6587\u4ef6
p17
sS'_django_version'
p18
S'1.11.1'
p19
sS'_state'
p20
ccopy_reg
_reconstructor
p21
(cdjango.db.models.base
ModelState
p22
c__builtin__
object
p23
Ntp24
Rp25
(dp26
S'adding'
p27
I00
sS'db'
p28
S'default'
p29
sbsS'owner_id'
p30
L1L
sS'id'
p31
L1L
sS'total_run_count'
p32
L1L
sS'create_time'
p33
cdatetime
datetime
p34
(S'\x07\xe3\x01\x16\x14\x04\x1b\t_9'
p35
tp36
Rp37
sS'script_from'
p38
L1L
sS'script_file'
p39
Vff28f95f.sh
p40
sS'script_type'
p41
L1L
sbsS'user_id'
p42
I1
sS'fullname'
p43
V/root/firecloud/static/upload/scripts/ff28f95f.sh
p44
sS'host_var_list'
p45
(lp46
(dp47
V192.168.10.3
p48
(dp49
S'ansible_ssh_user'
p50
Vroot
p51
ssasb.