(itaskcenter.views
ExecuteClass
p0
(dp1
S'group'
p2
S'all'
p3
sS'host_port_str'
p4
V172.16.149.2:22,
p5
sS'task_id'
p6
S'e6ddb252'
p7
sS'scriptObj'
p8
cdjango.db.models.base
model_unpickle
p9
((S'taskcenter'
p10
S'ScriptModel'
p11
tp12
tp13
Rp14
(dp15
S'name'
p16
Vlsdir
p17
sS'_django_version'
p18
S'1.11.1'
p19
sS'_state'
p20
ccopy_reg
_reconstructor
p21
(cdjango.db.models.base
ModelState
p22
c__builtin__
object
p23
Ntp24
Rp25
(dp26
S'adding'
p27
I00
sS'db'
p28
S'default'
p29
sbsS'owner_id'
p30
L1L
sS'id'
p31
L2L
sS'total_run_count'
p32
L1L
sS'create_time'
p33
cdatetime
datetime
p34
(S'\x07\xe3\x03\x1f\x0e\x1a$\n:u'
p35
tp36
Rp37
sS'script_from'
p38
L1L
sS'script_file'
p39
V44d75ee5.sh
p40
sS'script_type'
p41
L1L
sbsS'user_id'
p42
I1
sS'fullname'
p43
V/root/firecloud/static/upload/scripts/44d75ee5.sh
p44
sS'host_var_list'
p45
(lp46
(dp47
V172.16.149.2
p48
(dp49
S'ansible_ssh_user'
p50
Vroot
p51
ssasb.