(iwebapp.task.task
ExecuteClass
p0
(dp1
S'group'
p2
S'all'
p3
sS'host_port_str'
p4
V172.16.149.2:22,
p5
sS'task_id'
p6
S'feaa91d2'
p7
sS'scriptObj'
p8
cdjango.db.models.base
model_unpickle
p9
((S'webapp'
p10
S'ScriptModel'
p11
tp12
tp13
Rp14
(dp15
S'name'
p16
Vlsdir
p17
sS'_django_version'
p18
S'1.11.1'
p19
sS'_state'
p20
ccopy_reg
_reconstructor
p21
(cdjango.db.models.base
ModelState
p22
c__builtin__
object
p23
Ntp24
Rp25
(dp26
S'adding'
p27
I00
sS'db'
p28
S'default'
p29
sbsS'id'
p30
L1L
sS'total_run_count'
p31
L2L
sS'create_time'
p32
cdatetime
datetime
p33
(S'\x07\xe2\x0c\x16\r\t#\x06\xd5\xc2'
p34
tp35
Rp36
sS'script_from'
p37
L1L
sS'script_owner_id'
p38
L1L
sS'script_file'
p39
Vaa208eed.sh
p40
sS'script_type'
p41
L1L
sbsS'user_id'
p42
I1
sS'fullname'
p43
V/root/firecloud/static/upload/scripts/aa208eed.sh
p44
sS'host_var_list'
p45
(lp46
(dp47
V172.16.149.2
p48
(dp49
S'ansible_ssh_user'
p50
V
p51
ssasb.